target datalayout = "e-m:e-p270:32:32-p271:32:32-p272:64:64-i64:64-i128:128-f80:128-n8:16:32:64-S128"
target triple = "x86_64-unknown-linux-gnu"

%"class.hermes::Value" = type { i8, %"class.hermes::Type", %"class.llvh::SmallVector" }
%"class.hermes::Type" = type { i16, i16 }
%"class.llvh::SmallVector" = type { %"class.llvh::SmallVectorImpl", %"struct.llvh::SmallVectorStorage" }
%"class.llvh::SmallVectorImpl" = type { %"class.llvh::SmallVectorTemplateBase" }
%"class.llvh::SmallVectorTemplateBase" = type { %"class.llvh::SmallVectorTemplateCommon" }
%"class.llvh::SmallVectorTemplateCommon" = type { %"class.llvh::SmallVectorBase" }
%"class.llvh::SmallVectorBase" = type { ptr, i32, i32 }
%"struct.llvh::SmallVectorStorage" = type { [2 x %"struct.llvh::AlignedCharArrayUnion"] }
%"struct.llvh::AlignedCharArrayUnion" = type { %"struct.llvh::AlignedCharArray" }
%"struct.llvh::AlignedCharArray" = type { [8 x i8] }
%"class.llvh::ilist_node_base" = type { ptr, ptr }
%"class.llvh::SMLoc" = type { ptr }
%"class.hermes::Identifier" = type { ptr }
%"class.llvh::ilist_node_impl.21" = type { %"class.llvh::ilist_node_base" }
%"class.std::shared_ptr" = type { %"class.std::__shared_ptr" }
%"class.std::__shared_ptr" = type { ptr, %"class.std::__shared_count" }
%"class.std::__shared_count" = type { ptr }
%"class.hermes::Function" = type { %"class.llvh::ilist_node_with_parent.22", %"class.hermes::Value", ptr, i8, ptr, %"class.llvh::iplist.25", %"class.llvh::SmallVector.34", %"class.hermes::Identifier", i32, i8, %"class.llvh::SMRange", i32, %"class.hermes::Identifier", ptr, i32, %"class.hermes::OptValue", [4 x i8], %"struct.hermes::LazySource", %"class.std::shared_ptr", ptr }
%"class.llvh::ilist_node_with_parent.22" = type { %"class.llvh::ilist_node.23" }
%"class.llvh::ilist_node.23" = type { %"class.llvh::ilist_node_impl.24" }
%"class.llvh::ilist_node_impl.24" = type { %"class.llvh::ilist_node_base" }
%"class.llvh::iplist.25" = type { %"class.llvh::iplist_impl.26" }
%"class.llvh::iplist_impl.26" = type { %"class.llvh::simple_ilist.31" }
%"class.llvh::simple_ilist.31" = type { %"class.llvh::ilist_sentinel.33" }
%"class.llvh::ilist_sentinel.33" = type { %"class.llvh::ilist_node_impl.21" }
%"class.llvh::SmallVector.34" = type { %"class.llvh::SmallVectorImpl.35", %"struct.llvh::SmallVectorStorage.38" }
%"class.llvh::SmallVectorImpl.35" = type { %"class.llvh::SmallVectorTemplateBase.36" }
%"class.llvh::SmallVectorTemplateBase.36" = type { %"class.llvh::SmallVectorTemplateCommon.37" }
%"class.llvh::SmallVectorTemplateCommon.37" = type { %"class.llvh::SmallVectorBase" }
%"struct.llvh::SmallVectorStorage.38" = type { [8 x %"struct.llvh::AlignedCharArrayUnion.39"] }
%"struct.llvh::AlignedCharArrayUnion.39" = type { %"struct.llvh::AlignedCharArray" }
%"class.llvh::SMRange" = type { %"class.llvh::SMLoc", %"class.llvh::SMLoc" }
%"class.hermes::OptValue" = type <{ i32, i8, [3 x i8] }>
%"struct.hermes::LazySource" = type <{ i32, i32, %"class.llvh::SMRange", i8, i8, [6 x i8] }>
%"class.hermes::Parameter" = type { %"class.hermes::Value", ptr, %"class.hermes::Identifier" }

; Function Attrs: mustprogress nounwind uwtable
define linkonce_odr hidden noundef ptr @_ZNK6hermes8Function16getThisParameterEv(ptr noundef nonnull align 8 dereferenceable(304) %this) #0 comdat align 2 {
entry:
  %this.addr = alloca ptr, align 8
  store ptr %this, ptr %this.addr, align 8
  %this1 = load ptr, ptr %this.addr, align 8
  %thisParameter = getelementptr inbounds %"class.hermes::Function", ptr %this1, i32 0, i32 13
  %0 = load ptr, ptr %thisParameter, align 8
  ret ptr %0
}

; Function Attrs: mustprogress nounwind uwtable
define hidden noundef zeroext i1 @_ZNK6hermes9Parameter15isThisParameterEv(ptr noundef nonnull align 8 dereferenceable(56) %this) #0 align 2 {
entry:
  %this.addr = alloca ptr, align 8
  store ptr %this, ptr %this.addr, align 8
  %this1 = load ptr, ptr %this.addr, align 8
  %Parent = getelementptr inbounds %"class.hermes::Parameter", ptr %this1, i32 0, i32 1
  %0 = load ptr, ptr %Parent, align 8
  %call = call noundef ptr @_ZNK6hermes8Function16getThisParameterEv(ptr noundef nonnull align 8 dereferenceable(304) %0)
  %cmp = icmp eq ptr %call, %this1
  ret i1 %cmp
}