; Function Attrs: mustprogress nofree norecurse nosync nounwind willreturn memory(read, inaccessiblemem: none) uwtable
define hidden noundef zeroext i1 @_ZNK6hermes9Parameter15isThisParameterEv(ptr noundef nonnull readonly align 8 dereferenceable(56) %this) local_unnamed_addr #4 align 2 {
entry:
  %Parent = getelementptr inbounds i8, ptr %this, i64 40
  %0 = load ptr, ptr %Parent, align 8
  %thisParameter.i = getelementptr inbounds i8, ptr %0, i64 224
  %1 = load ptr, ptr %thisParameter.i, align 8
  %cmp = icmp eq ptr %1, %this
  ret i1 %cmp
}